target datalayout = "e-m:e-p270:32:32-p271:32:32-p272:64:64-i64:64-i128:128-f80:128-n8:16:32:64-S128"
target triple = "x86_64-pc-linux-gnu"

%struct.aiNode = type { %struct.aiString, %class.aiMatrix4x4t, ptr, i32, ptr, i32, ptr, ptr }
%struct.aiString = type { i32, [1024 x i8] }
%class.aiMatrix4x4t = type { float, float, float, float, float, float, float, float, float, float, float, float, float, float, float, float }

@.str.13 = private unnamed_addr constant [58 x i8] c"Can't add an unique prefix because the string is too long\00", align 1

; Function Attrs: inlinehint mustprogress uwtable
define linkonce_odr hidden void @_ZN6Assimp12PrefixStringER8aiStringPKcj(ptr noundef nonnull align 4 dereferenceable(1028) %0, ptr noundef %1, i32 noundef %2) #3 comdat {
  %4 = alloca ptr, align 8
  %5 = alloca ptr, align 8
  %6 = alloca i32, align 4
  store ptr %0, ptr %4, align 8
  store ptr %1, ptr %5, align 8
  store i32 %2, ptr %6, align 4
  %7 = load ptr, ptr %4, align 8
  %8 = getelementptr inbounds nuw %struct.aiString, ptr %7, i32 0, i32 0
  %9 = load i32, ptr %8, align 4
  %10 = icmp uge i32 %9, 1
  br i1 %10, label %11, label %19

11:                                               ; preds = %3
  %12 = load ptr, ptr %4, align 8
  %13 = getelementptr inbounds nuw %struct.aiString, ptr %12, i32 0, i32 1
  %14 = getelementptr inbounds [1024 x i8], ptr %13, i64 0, i64 0
  %15 = load i8, ptr %14, align 4
  %16 = sext i8 %15 to i32
  %17 = icmp eq i32 %16, 36
  br i1 %17, label %18, label %19

18:                                               ; preds = %11
  br label %55

19:                                               ; preds = %11, %3
  %20 = load i32, ptr %6, align 4
  %21 = load ptr, ptr %4, align 8
  %22 = getelementptr inbounds nuw %struct.aiString, ptr %21, i32 0, i32 0
  %23 = load i32, ptr %22, align 4
  %24 = add i32 %20, %23
  %25 = zext i32 %24 to i64
  %26 = icmp uge i64 %25, 1023
  br i1 %26, label %27, label %29

27:                                               ; preds = %19
  %28 = call noundef ptr @_ZN6Assimp13DefaultLogger3getEv()
  call void @_ZN6Assimp6Logger12verboseDebugEPKc(ptr noundef nonnull align 8 dereferenceable(12) %28, ptr noundef @.str.13)
  br label %55

29:                                               ; preds = %19
  %30 = load ptr, ptr %4, align 8
  %31 = getelementptr inbounds nuw %struct.aiString, ptr %30, i32 0, i32 1
  %32 = getelementptr inbounds [1024 x i8], ptr %31, i64 0, i64 0
  %33 = load i32, ptr %6, align 4
  %34 = zext i32 %33 to i64
  %35 = getelementptr inbounds nuw i8, ptr %32, i64 %34
  %36 = load ptr, ptr %4, align 8
  %37 = getelementptr inbounds nuw %struct.aiString, ptr %36, i32 0, i32 1
  %38 = getelementptr inbounds [1024 x i8], ptr %37, i64 0, i64 0
  %39 = load ptr, ptr %4, align 8
  %40 = getelementptr inbounds nuw %struct.aiString, ptr %39, i32 0, i32 0
  %41 = load i32, ptr %40, align 4
  %42 = add i32 %41, 1
  %43 = zext i32 %42 to i64
  call void @llvm.memmove.p0.p0.i64(ptr align 1 %35, ptr align 4 %38, i64 %43, i1 false)
  %44 = load ptr, ptr %4, align 8
  %45 = getelementptr inbounds nuw %struct.aiString, ptr %44, i32 0, i32 1
  %46 = getelementptr inbounds [1024 x i8], ptr %45, i64 0, i64 0
  %47 = load ptr, ptr %5, align 8
  %48 = load i32, ptr %6, align 4
  %49 = zext i32 %48 to i64
  call void @llvm.memcpy.p0.p0.i64(ptr align 4 %46, ptr align 1 %47, i64 %49, i1 false)
  %50 = load i32, ptr %6, align 4
  %51 = load ptr, ptr %4, align 8
  %52 = getelementptr inbounds nuw %struct.aiString, ptr %51, i32 0, i32 0
  %53 = load i32, ptr %52, align 4
  %54 = add i32 %53, %50
  store i32 %54, ptr %52, align 4
  br label %55

55:                                               ; preds = %29, %27, %18
  ret void
}

; Function Attrs: mustprogress uwtable
define void @_ZN6Assimp13SceneCombiner15AddNodePrefixesEP6aiNodePKcj(ptr noundef %0, ptr noundef %1, i32 noundef %2) #0 align 2 {
  %4 = alloca ptr, align 8
  %5 = alloca ptr, align 8
  %6 = alloca i32, align 4
  %7 = alloca i32, align 4
  store ptr %0, ptr %4, align 8
  store ptr %1, ptr %5, align 8
  store i32 %2, ptr %6, align 4
  %8 = load ptr, ptr %4, align 8
  %9 = getelementptr inbounds nuw %struct.aiNode, ptr %8, i32 0, i32 0
  %10 = load ptr, ptr %5, align 8
  %11 = load i32, ptr %6, align 4
  call void @_ZN6Assimp12PrefixStringER8aiStringPKcj(ptr noundef nonnull align 4 dereferenceable(1028) %9, ptr noundef %10, i32 noundef %11)
  call void @llvm.lifetime.start.p0(i64 4, ptr %7) #17
  store i32 0, ptr %7, align 4
  br label %12

12:                                               ; preds = %29, %3
  %13 = load i32, ptr %7, align 4
  %14 = load ptr, ptr %4, align 8
  %15 = getelementptr inbounds nuw %struct.aiNode, ptr %14, i32 0, i32 3
  %16 = load i32, ptr %15, align 8
  %17 = icmp ult i32 %13, %16
  br i1 %17, label %19, label %18

18:                                               ; preds = %12
  call void @llvm.lifetime.end.p0(i64 4, ptr %7) #17
  br label %32

19:                                               ; preds = %12
  %20 = load ptr, ptr %4, align 8
  %21 = getelementptr inbounds nuw %struct.aiNode, ptr %20, i32 0, i32 4
  %22 = load ptr, ptr %21, align 8
  %23 = load i32, ptr %7, align 4
  %24 = zext i32 %23 to i64
  %25 = getelementptr inbounds nuw ptr, ptr %22, i64 %24
  %26 = load ptr, ptr %25, align 8
  %27 = load ptr, ptr %5, align 8
  %28 = load i32, ptr %6, align 4
  call void @_ZN6Assimp13SceneCombiner15AddNodePrefixesEP6aiNodePKcj(ptr noundef %26, ptr noundef %27, i32 noundef %28)
  br label %29

29:                                               ; preds = %19
  %30 = load i32, ptr %7, align 4
  %31 = add i32 %30, 1
  store i32 %31, ptr %7, align 4
  br label %12, !llvm.loop !6

32:                                               ; preds = %18
  ret void
}