; Function Attrs: mustprogress uwtable
define void @_ZN6Assimp13SceneCombiner15AddNodePrefixesEP6aiNodePKcj(ptr noundef captures(none) %0, ptr noundef readonly captures(none) %1, i32 noundef %2) local_unnamed_addr #0 align 2 {
  %4 = load i32, ptr %0, align 4
  %.not.i = icmp ne i32 %4, 0
  %5 = getelementptr inbounds nuw i8, ptr %0, i64 4
  %6 = load i8, ptr %5, align 4
  %7 = icmp eq i8 %6, 36
  %or.cond.i = select i1 %.not.i, i1 %7, i1 false
  br i1 %or.cond.i, label %_ZN6Assimp12PrefixStringER8aiStringPKcj.exit, label %8

8:                                                ; preds = %3
  %9 = add i32 %4, %2
  %10 = icmp ugt i32 %9, 1022
  br i1 %10, label %11, label %13

11:                                               ; preds = %8
  %12 = tail call noundef ptr @_ZN6Assimp13DefaultLogger3getEv()
  tail call void @_ZN6Assimp6Logger12verboseDebugEPKc(ptr noundef nonnull align 8 dereferenceable(12) %12, ptr noundef nonnull @.str.13)
  br label %_ZN6Assimp12PrefixStringER8aiStringPKcj.exit

13:                                               ; preds = %8
  %14 = zext i32 %2 to i64
  %15 = getelementptr inbounds nuw i8, ptr %5, i64 %14
  %16 = add i32 %4, 1
  %17 = zext i32 %16 to i64
  tail call void @llvm.memmove.p0.p0.i64(ptr nonnull align 1 %15, ptr nonnull align 4 %5, i64 %17, i1 false)
  tail call void @llvm.memcpy.p0.p0.i64(ptr nonnull align 4 %5, ptr align 1 %1, i64 %14, i1 false)
  store i32 %9, ptr %0, align 4
  br label %_ZN6Assimp12PrefixStringER8aiStringPKcj.exit

_ZN6Assimp12PrefixStringER8aiStringPKcj.exit:     ; preds = %3, %11, %13
  %18 = getelementptr inbounds nuw i8, ptr %0, i64 1104
  %19 = load i32, ptr %18, align 8
  %.not = icmp eq i32 %19, 0
  br i1 %.not, label %._crit_edge, label %.lr.ph

.lr.ph:                                           ; preds = %_ZN6Assimp12PrefixStringER8aiStringPKcj.exit
  %20 = getelementptr inbounds nuw i8, ptr %0, i64 1112
  br label %21

._crit_edge:                                      ; preds = %21, %_ZN6Assimp12PrefixStringER8aiStringPKcj.exit
  ret void

21:                                               ; preds = %.lr.ph, %21
  %indvars.iv = phi i64 [ 0, %.lr.ph ], [ %indvars.iv.next, %21 ]
  %22 = load ptr, ptr %20, align 8
  %23 = getelementptr inbounds nuw ptr, ptr %22, i64 %indvars.iv
  %24 = load ptr, ptr %23, align 8
  tail call void @_ZN6Assimp13SceneCombiner15AddNodePrefixesEP6aiNodePKcj(ptr noundef %24, ptr noundef %1, i32 noundef %2)
  %indvars.iv.next = add nuw nsw i64 %indvars.iv, 1
  %25 = load i32, ptr %18, align 8
  %26 = zext i32 %25 to i64
  %27 = icmp samesign ult i64 %indvars.iv.next, %26
  br i1 %27, label %21, label %._crit_edge, !llvm.loop !7
}